target datalayout = "e-m:e-p270:32:32-p271:32:32-p272:64:64-i64:64-i128:128-f80:128-n8:16:32:64-S128"
target triple = "x86_64-pc-linux-gnu"

%struct.expert_field = type { i32, i32 }

@ei_gtpv2_ie_data_not_dissected = internal global %struct.expert_field zeroinitializer, align 4
@.str.3 = private unnamed_addr constant [37 x i8] c"The rest of the IE not dissected yet\00", align 1
@dissect_gtpv2_twan_identifier.twan_id_flags = internal constant [6 x ptr] [ptr @hf_gtpv2_twan_laii, ptr @hf_gtpv2_twan_opnai, ptr @hf_gtpv2_twan_plmni, ptr @hf_gtpv2_twan_civai, ptr @hf_gtpv2_twan_bssidi, ptr null], align 16
@hf_gtpv2_twan_flags = internal global i32 0, align 4
@ett_gtpv2_twan_flags = internal global i32 0, align 4
@hf_gtpv2_twan_ssid_len = internal global i32 0, align 4
@hf_gtpv2_twan_ssid = internal global i32 0, align 4
@hf_gtpv2_twan_bssid = internal global i32 0, align 4
@hf_gtpv2_twan_civa_len = internal global i32 0, align 4
@hf_gtpv2_twan_civa = internal global i32 0, align 4
@hf_gtpv2_twan_plmnid = internal global i32 0, align 4
@hf_gtpv2_twan_op_name_len = internal global i32 0, align 4
@hf_gtpv2_twan_op_name = internal global i32 0, align 4
@hf_gtpv2_twan_relay_id_type = internal global i32 0, align 4
@hf_gtpv2_twan_relay_id_len = internal global i32 0, align 4
@hf_gtpv2_twan_relay_id_ipv4 = internal global i32 0, align 4
@hf_gtpv2_twan_relay_id_ipv6 = internal global i32 0, align 4
@hf_gtpv2_twan_relay_id = internal global i32 0, align 4
@hf_gtpv2_twan_circuit_id_len = internal global i32 0, align 4
@hf_gtpv2_twan_circuit_id = internal global i32 0, align 4

; Function Attrs: null_pointer_is_valid sspstrong uwtable
define hidden void @dissect_gtpv2_twan_identifier(ptr noundef %0, ptr noundef %1, ptr noundef %2, ptr noundef %3, i16 noundef zeroext %4, i8 noundef zeroext %5, i8 noundef zeroext %6, ptr noundef %7) #1 {
  %9 = alloca ptr, align 8
  %10 = alloca ptr, align 8
  %11 = alloca ptr, align 8
  %12 = alloca ptr, align 8
  %13 = alloca i16, align 2
  %14 = alloca i8, align 1
  %15 = alloca i8, align 1
  %16 = alloca ptr, align 8
  %17 = alloca i32, align 4
  %18 = alloca i8, align 1
  %19 = alloca i32, align 4
  %20 = alloca i32, align 4
  %21 = alloca i32, align 4
  %22 = alloca i32, align 4
  %23 = alloca i32, align 4
  %24 = alloca i32, align 4
  store ptr %0, ptr %9, align 8
  store ptr %1, ptr %10, align 8
  store ptr %2, ptr %11, align 8
  store ptr %3, ptr %12, align 8
  store i16 %4, ptr %13, align 2
  store i8 %5, ptr %14, align 1
  store i8 %6, ptr %15, align 1
  store ptr %7, ptr %16, align 8
  call void @llvm.lifetime.start.p0(i64 4, ptr %17) #11
  store i32 0, ptr %17, align 4
  call void @llvm.lifetime.start.p0(i64 1, ptr %18) #11
  store i8 0, ptr %18, align 1
  call void @llvm.lifetime.start.p0(i64 4, ptr %19) #11
  call void @llvm.lifetime.start.p0(i64 4, ptr %20) #11
  call void @llvm.lifetime.start.p0(i64 4, ptr %21) #11
  call void @llvm.lifetime.start.p0(i64 4, ptr %22) #11
  call void @llvm.lifetime.start.p0(i64 4, ptr %23) #11
  call void @llvm.lifetime.start.p0(i64 4, ptr %24) #11
  %25 = load ptr, ptr %9, align 8
  %26 = load i32, ptr %17, align 4
  %27 = call zeroext i8 @tvb_get_uint8(ptr noundef %25, i32 noundef %26)
  store i8 %27, ptr %18, align 1
  %28 = load ptr, ptr %11, align 8
  %29 = load ptr, ptr %9, align 8
  %30 = load i32, ptr %17, align 4
  %31 = load i32, ptr @hf_gtpv2_twan_flags, align 4
  %32 = load i32, ptr @ett_gtpv2_twan_flags, align 4
  %33 = call ptr @proto_tree_add_bitmask(ptr noundef %28, ptr noundef %29, i32 noundef %30, i32 noundef %31, i32 noundef %32, ptr noundef @dissect_gtpv2_twan_identifier.twan_id_flags, i32 noundef 0)
  %34 = load i32, ptr %17, align 4
  %35 = add i32 %34, 1
  store i32 %35, ptr %17, align 4
  %36 = load ptr, ptr %11, align 8
  %37 = load i32, ptr @hf_gtpv2_twan_ssid_len, align 4
  %38 = load ptr, ptr %9, align 8
  %39 = load i32, ptr %17, align 4
  %40 = call ptr @proto_tree_add_item_ret_uint(ptr noundef %36, i32 noundef %37, ptr noundef %38, i32 noundef %39, i32 noundef 1, i32 noundef 0, ptr noundef %19)
  %41 = load i32, ptr %17, align 4
  %42 = add i32 %41, 1
  store i32 %42, ptr %17, align 4
  %43 = load ptr, ptr %11, align 8
  %44 = load i32, ptr @hf_gtpv2_twan_ssid, align 4
  %45 = load ptr, ptr %9, align 8
  %46 = load i32, ptr %17, align 4
  %47 = load i32, ptr %19, align 4
  %48 = call ptr @proto_tree_add_item(ptr noundef %43, i32 noundef %44, ptr noundef %45, i32 noundef %46, i32 noundef %47, i32 noundef 0)
  %49 = load i32, ptr %19, align 4
  %50 = load i32, ptr %17, align 4
  %51 = add i32 %50, %49
  store i32 %51, ptr %17, align 4
  %52 = load i8, ptr %18, align 1
  %53 = zext i8 %52 to i32
  %54 = and i32 %53, 1
  %55 = icmp ne i32 %54, 0
  br i1 %55, label %56, label %64

56:                                               ; preds = %8
  %57 = load ptr, ptr %11, align 8
  %58 = load i32, ptr @hf_gtpv2_twan_bssid, align 4
  %59 = load ptr, ptr %9, align 8
  %60 = load i32, ptr %17, align 4
  %61 = call ptr @proto_tree_add_item(ptr noundef %57, i32 noundef %58, ptr noundef %59, i32 noundef %60, i32 noundef 6, i32 noundef 0)
  %62 = load i32, ptr %17, align 4
  %63 = add i32 %62, 6
  store i32 %63, ptr %17, align 4
  br label %64

64:                                               ; preds = %56, %8
  %65 = load i8, ptr %18, align 1
  %66 = zext i8 %65 to i32
  %67 = and i32 %66, 2
  %68 = icmp ne i32 %67, 0
  br i1 %68, label %69, label %86

69:                                               ; preds = %64
  %70 = load ptr, ptr %11, align 8
  %71 = load i32, ptr @hf_gtpv2_twan_civa_len, align 4
  %72 = load ptr, ptr %9, align 8
  %73 = load i32, ptr %17, align 4
  %74 = call ptr @proto_tree_add_item_ret_uint(ptr noundef %70, i32 noundef %71, ptr noundef %72, i32 noundef %73, i32 noundef 1, i32 noundef 0, ptr noundef %20)
  %75 = load i32, ptr %17, align 4
  %76 = add i32 %75, 1
  store i32 %76, ptr %17, align 4
  %77 = load ptr, ptr %11, align 8
  %78 = load i32, ptr @hf_gtpv2_twan_civa, align 4
  %79 = load ptr, ptr %9, align 8
  %80 = load i32, ptr %17, align 4
  %81 = load i32, ptr %20, align 4
  %82 = call ptr @proto_tree_add_item(ptr noundef %77, i32 noundef %78, ptr noundef %79, i32 noundef %80, i32 noundef %81, i32 noundef 0)
  %83 = load i32, ptr %20, align 4
  %84 = load i32, ptr %17, align 4
  %85 = add i32 %84, %83
  store i32 %85, ptr %17, align 4
  br label %86

86:                                               ; preds = %69, %64
  %87 = load i8, ptr %18, align 1
  %88 = zext i8 %87 to i32
  %89 = and i32 %88, 4
  %90 = icmp ne i32 %89, 0
  br i1 %90, label %91, label %99

91:                                               ; preds = %86
  %92 = load ptr, ptr %11, align 8
  %93 = load i32, ptr @hf_gtpv2_twan_plmnid, align 4
  %94 = load ptr, ptr %9, align 8
  %95 = load i32, ptr %17, align 4
  %96 = call ptr @proto_tree_add_item(ptr noundef %92, i32 noundef %93, ptr noundef %94, i32 noundef %95, i32 noundef 3, i32 noundef 0)
  %97 = load i32, ptr %17, align 4
  %98 = add i32 %97, 3
  store i32 %98, ptr %17, align 4
  br label %99

99:                                               ; preds = %91, %86
  %100 = load i8, ptr %18, align 1
  %101 = zext i8 %100 to i32
  %102 = and i32 %101, 8
  %103 = icmp ne i32 %102, 0
  br i1 %103, label %104, label %121

104:                                              ; preds = %99
  %105 = load ptr, ptr %11, align 8
  %106 = load i32, ptr @hf_gtpv2_twan_op_name_len, align 4
  %107 = load ptr, ptr %9, align 8
  %108 = load i32, ptr %17, align 4
  %109 = call ptr @proto_tree_add_item_ret_uint(ptr noundef %105, i32 noundef %106, ptr noundef %107, i32 noundef %108, i32 noundef 1, i32 noundef 0, ptr noundef %21)
  %110 = load i32, ptr %17, align 4
  %111 = add i32 %110, 1
  store i32 %111, ptr %17, align 4
  %112 = load ptr, ptr %11, align 8
  %113 = load i32, ptr @hf_gtpv2_twan_op_name, align 4
  %114 = load ptr, ptr %9, align 8
  %115 = load i32, ptr %17, align 4
  %116 = load i32, ptr %21, align 4
  %117 = call ptr @proto_tree_add_item(ptr noundef %112, i32 noundef %113, ptr noundef %114, i32 noundef %115, i32 noundef %116, i32 noundef 0)
  %118 = load i32, ptr %21, align 4
  %119 = load i32, ptr %17, align 4
  %120 = add i32 %119, %118
  store i32 %120, ptr %17, align 4
  br label %121

121:                                              ; preds = %104, %99
  %122 = load i8, ptr %18, align 1
  %123 = zext i8 %122 to i32
  %124 = and i32 %123, 16
  %125 = icmp ne i32 %124, 0
  br i1 %125, label %126, label %190

126:                                              ; preds = %121
  %127 = load ptr, ptr %11, align 8
  %128 = load i32, ptr @hf_gtpv2_twan_relay_id_type, align 4
  %129 = load ptr, ptr %9, align 8
  %130 = load i32, ptr %17, align 4
  %131 = call ptr @proto_tree_add_item_ret_uint(ptr noundef %127, i32 noundef %128, ptr noundef %129, i32 noundef %130, i32 noundef 1, i32 noundef 0, ptr noundef %22)
  %132 = load i32, ptr %17, align 4
  %133 = add i32 %132, 1
  store i32 %133, ptr %17, align 4
  %134 = load ptr, ptr %11, align 8
  %135 = load i32, ptr @hf_gtpv2_twan_relay_id_len, align 4
  %136 = load ptr, ptr %9, align 8
  %137 = load i32, ptr %17, align 4
  %138 = call ptr @proto_tree_add_item_ret_uint(ptr noundef %134, i32 noundef %135, ptr noundef %136, i32 noundef %137, i32 noundef 1, i32 noundef 0, ptr noundef %23)
  %139 = load i32, ptr %17, align 4
  %140 = add i32 %139, 1
  store i32 %140, ptr %17, align 4
  %141 = load i32, ptr %22, align 4
  switch i32 %141, label %172 [
    i32 0, label %142
    i32 1, label %162
  ]

142:                                              ; preds = %126
  %143 = load i32, ptr %23, align 4
  %144 = icmp eq i32 %143, 4
  br i1 %144, label %145, label %153

145:                                              ; preds = %142
  %146 = load ptr, ptr %11, align 8
  %147 = load i32, ptr @hf_gtpv2_twan_relay_id_ipv4, align 4
  %148 = load ptr, ptr %9, align 8
  %149 = load i32, ptr %17, align 4
  %150 = call ptr @proto_tree_add_item(ptr noundef %146, i32 noundef %147, ptr noundef %148, i32 noundef %149, i32 noundef 4, i32 noundef 0)
  %151 = load i32, ptr %17, align 4
  %152 = add i32 %151, 4
  store i32 %152, ptr %17, align 4
  br label %161

153:                                              ; preds = %142
  %154 = load ptr, ptr %11, align 8
  %155 = load i32, ptr @hf_gtpv2_twan_relay_id_ipv6, align 4
  %156 = load ptr, ptr %9, align 8
  %157 = load i32, ptr %17, align 4
  %158 = call ptr @proto_tree_add_item(ptr noundef %154, i32 noundef %155, ptr noundef %156, i32 noundef %157, i32 noundef 16, i32 noundef 0)
  %159 = load i32, ptr %17, align 4
  %160 = add i32 %159, 16
  store i32 %160, ptr %17, align 4
  br label %161

161:                                              ; preds = %153, %145
  br label %173

162:                                              ; preds = %126
  %163 = load ptr, ptr %11, align 8
  %164 = load i32, ptr @hf_gtpv2_twan_relay_id, align 4
  %165 = load ptr, ptr %9, align 8
  %166 = load i32, ptr %17, align 4
  %167 = load i32, ptr %23, align 4
  %168 = call ptr @proto_tree_add_item(ptr noundef %163, i32 noundef %164, ptr noundef %165, i32 noundef %166, i32 noundef %167, i32 noundef 0)
  %169 = load i32, ptr %23, align 4
  %170 = load i32, ptr %17, align 4
  %171 = add i32 %170, %169
  store i32 %171, ptr %17, align 4
  br label %172

172:                                              ; preds = %126, %162
  br label %173

173:                                              ; preds = %172, %161
  %174 = load ptr, ptr %11, align 8
  %175 = load i32, ptr @hf_gtpv2_twan_circuit_id_len, align 4
  %176 = load ptr, ptr %9, align 8
  %177 = load i32, ptr %17, align 4
  %178 = call ptr @proto_tree_add_item_ret_uint(ptr noundef %174, i32 noundef %175, ptr noundef %176, i32 noundef %177, i32 noundef 1, i32 noundef 0, ptr noundef %24)
  %179 = load i32, ptr %17, align 4
  %180 = add i32 %179, 1
  store i32 %180, ptr %17, align 4
  %181 = load ptr, ptr %11, align 8
  %182 = load i32, ptr @hf_gtpv2_twan_circuit_id, align 4
  %183 = load ptr, ptr %9, align 8
  %184 = load i32, ptr %17, align 4
  %185 = load i32, ptr %24, align 4
  %186 = call ptr @proto_tree_add_item(ptr noundef %181, i32 noundef %182, ptr noundef %183, i32 noundef %184, i32 noundef %185, i32 noundef 0)
  %187 = load i32, ptr %24, align 4
  %188 = load i32, ptr %17, align 4
  %189 = add i32 %188, %187
  store i32 %189, ptr %17, align 4
  br label %190

190:                                              ; preds = %173, %121
  %191 = load i32, ptr %17, align 4
  %192 = load i16, ptr %13, align 2
  %193 = zext i16 %192 to i32
  %194 = icmp slt i32 %191, %193
  br i1 %194, label %195, label %201

195:                                              ; preds = %190
  %196 = load ptr, ptr %11, align 8
  %197 = load ptr, ptr %10, align 8
  %198 = load ptr, ptr %9, align 8
  %199 = load i32, ptr %17, align 4
  %200 = call ptr (ptr, ptr, ptr, ptr, i32, i32, ptr, ...) @proto_tree_add_expert_format(ptr noundef %196, ptr noundef %197, ptr noundef @ei_gtpv2_ie_data_not_dissected, ptr noundef %198, i32 noundef %199, i32 noundef -1, ptr noundef @.str.3)
  br label %201

201:                                              ; preds = %195, %190
  call void @llvm.lifetime.end.p0(i64 4, ptr %24) #11
  call void @llvm.lifetime.end.p0(i64 4, ptr %23) #11
  call void @llvm.lifetime.end.p0(i64 4, ptr %22) #11
  call void @llvm.lifetime.end.p0(i64 4, ptr %21) #11
  call void @llvm.lifetime.end.p0(i64 4, ptr %20) #11
  call void @llvm.lifetime.end.p0(i64 4, ptr %19) #11
  call void @llvm.lifetime.end.p0(i64 1, ptr %18) #11
  call void @llvm.lifetime.end.p0(i64 4, ptr %17) #11
  ret void
}