; Function Attrs: null_pointer_is_valid sspstrong uwtable
define hidden void @dissect_gtpv2_twan_identifier(ptr noundef %0, ptr noundef %1, ptr noundef %2, ptr readnone captures(none) %3, i16 noundef zeroext %4, i8 zeroext %5, i8 zeroext %6, ptr readnone captures(none) %7) #1 {
  %9 = alloca i32, align 4
  %10 = alloca i32, align 4
  %11 = alloca i32, align 4
  %12 = alloca i32, align 4
  %13 = alloca i32, align 4
  %14 = alloca i32, align 4
  call void @llvm.lifetime.start.p0(i64 4, ptr nonnull %9) #12
  call void @llvm.lifetime.start.p0(i64 4, ptr nonnull %10) #12
  call void @llvm.lifetime.start.p0(i64 4, ptr nonnull %11) #12
  call void @llvm.lifetime.start.p0(i64 4, ptr nonnull %12) #12
  call void @llvm.lifetime.start.p0(i64 4, ptr nonnull %13) #12
  call void @llvm.lifetime.start.p0(i64 4, ptr nonnull %14) #12
  %15 = tail call zeroext i8 @tvb_get_uint8(ptr noundef %0, i32 noundef 0)
  %16 = load i32, ptr @hf_gtpv2_twan_flags, align 4
  %17 = load i32, ptr @ett_gtpv2_twan_flags, align 4
  %18 = tail call ptr @proto_tree_add_bitmask(ptr noundef %2, ptr noundef %0, i32 noundef 0, i32 noundef %16, i32 noundef %17, ptr noundef nonnull @dissect_gtpv2_twan_identifier.twan_id_flags, i32 noundef 0)
  %19 = load i32, ptr @hf_gtpv2_twan_ssid_len, align 4
  %20 = call ptr @proto_tree_add_item_ret_uint(ptr noundef %2, i32 noundef %19, ptr noundef %0, i32 noundef 1, i32 noundef 1, i32 noundef 0, ptr noundef nonnull %9)
  %21 = load i32, ptr @hf_gtpv2_twan_ssid, align 4
  %22 = load i32, ptr %9, align 4
  %23 = call ptr @proto_tree_add_item(ptr noundef %2, i32 noundef %21, ptr noundef %0, i32 noundef 2, i32 noundef %22, i32 noundef 0)
  %24 = load i32, ptr %9, align 4
  %25 = add i32 %24, 2
  %26 = zext i8 %15 to i32
  %27 = and i32 %26, 1
  %.not = icmp eq i32 %27, 0
  br i1 %.not, label %32, label %28

28:                                               ; preds = %8
  %29 = load i32, ptr @hf_gtpv2_twan_bssid, align 4
  %30 = call ptr @proto_tree_add_item(ptr noundef %2, i32 noundef %29, ptr noundef %0, i32 noundef %25, i32 noundef 6, i32 noundef 0)
  %31 = add i32 %24, 8
  br label %32

32:                                               ; preds = %28, %8
  %.0 = phi i32 [ %31, %28 ], [ %25, %8 ]
  %33 = and i32 %26, 2
  %.not76 = icmp eq i32 %33, 0
  br i1 %.not76, label %43, label %34

34:                                               ; preds = %32
  %35 = load i32, ptr @hf_gtpv2_twan_civa_len, align 4
  %36 = call ptr @proto_tree_add_item_ret_uint(ptr noundef %2, i32 noundef %35, ptr noundef %0, i32 noundef %.0, i32 noundef 1, i32 noundef 0, ptr noundef nonnull %10)
  %37 = add i32 %.0, 1
  %38 = load i32, ptr @hf_gtpv2_twan_civa, align 4
  %39 = load i32, ptr %10, align 4
  %40 = call ptr @proto_tree_add_item(ptr noundef %2, i32 noundef %38, ptr noundef %0, i32 noundef %37, i32 noundef %39, i32 noundef 0)
  %41 = load i32, ptr %10, align 4
  %42 = add i32 %41, %37
  br label %43

43:                                               ; preds = %34, %32
  %.1 = phi i32 [ %42, %34 ], [ %.0, %32 ]
  %44 = and i32 %26, 4
  %.not77 = icmp eq i32 %44, 0
  br i1 %.not77, label %49, label %45

45:                                               ; preds = %43
  %46 = load i32, ptr @hf_gtpv2_twan_plmnid, align 4
  %47 = call ptr @proto_tree_add_item(ptr noundef %2, i32 noundef %46, ptr noundef %0, i32 noundef %.1, i32 noundef 3, i32 noundef 0)
  %48 = add i32 %.1, 3
  br label %49

49:                                               ; preds = %45, %43
  %.2 = phi i32 [ %48, %45 ], [ %.1, %43 ]
  %50 = and i32 %26, 8
  %.not78 = icmp eq i32 %50, 0
  br i1 %.not78, label %60, label %51

51:                                               ; preds = %49
  %52 = load i32, ptr @hf_gtpv2_twan_op_name_len, align 4
  %53 = call ptr @proto_tree_add_item_ret_uint(ptr noundef %2, i32 noundef %52, ptr noundef %0, i32 noundef %.2, i32 noundef 1, i32 noundef 0, ptr noundef nonnull %11)
  %54 = add i32 %.2, 1
  %55 = load i32, ptr @hf_gtpv2_twan_op_name, align 4
  %56 = load i32, ptr %11, align 4
  %57 = call ptr @proto_tree_add_item(ptr noundef %2, i32 noundef %55, ptr noundef %0, i32 noundef %54, i32 noundef %56, i32 noundef 0)
  %58 = load i32, ptr %11, align 4
  %59 = add i32 %58, %54
  br label %60

60:                                               ; preds = %51, %49
  %.3 = phi i32 [ %59, %51 ], [ %.2, %49 ]
  %61 = and i32 %26, 16
  %.not79 = icmp eq i32 %61, 0
  br i1 %.not79, label %96, label %62

62:                                               ; preds = %60
  %63 = load i32, ptr @hf_gtpv2_twan_relay_id_type, align 4
  %64 = call ptr @proto_tree_add_item_ret_uint(ptr noundef %2, i32 noundef %63, ptr noundef %0, i32 noundef %.3, i32 noundef 1, i32 noundef 0, ptr noundef nonnull %12)
  %65 = add i32 %.3, 1
  %66 = load i32, ptr @hf_gtpv2_twan_relay_id_len, align 4
  %67 = call ptr @proto_tree_add_item_ret_uint(ptr noundef %2, i32 noundef %66, ptr noundef %0, i32 noundef %65, i32 noundef 1, i32 noundef 0, ptr noundef nonnull %13)
  %68 = add i32 %.3, 2
  %69 = load i32, ptr %12, align 4
  switch i32 %69, label %87 [
    i32 0, label %70
    i32 1, label %81
  ]

70:                                               ; preds = %62
  %71 = load i32, ptr %13, align 4
  %72 = icmp eq i32 %71, 4
  br i1 %72, label %73, label %77

73:                                               ; preds = %70
  %74 = load i32, ptr @hf_gtpv2_twan_relay_id_ipv4, align 4
  %75 = call ptr @proto_tree_add_item(ptr noundef %2, i32 noundef %74, ptr noundef %0, i32 noundef %68, i32 noundef 4, i32 noundef 0)
  %76 = add i32 %.3, 6
  br label %87

77:                                               ; preds = %70
  %78 = load i32, ptr @hf_gtpv2_twan_relay_id_ipv6, align 4
  %79 = call ptr @proto_tree_add_item(ptr noundef %2, i32 noundef %78, ptr noundef %0, i32 noundef %68, i32 noundef 16, i32 noundef 0)
  %80 = add i32 %.3, 18
  br label %87

81:                                               ; preds = %62
  %82 = load i32, ptr @hf_gtpv2_twan_relay_id, align 4
  %83 = load i32, ptr %13, align 4
  %84 = call ptr @proto_tree_add_item(ptr noundef %2, i32 noundef %82, ptr noundef %0, i32 noundef %68, i32 noundef %83, i32 noundef 0)
  %85 = load i32, ptr %13, align 4
  %86 = add i32 %85, %68
  br label %87

87:                                               ; preds = %62, %81, %73, %77
  %.5 = phi i32 [ %68, %62 ], [ %86, %81 ], [ %76, %73 ], [ %80, %77 ]
  %88 = load i32, ptr @hf_gtpv2_twan_circuit_id_len, align 4
  %89 = call ptr @proto_tree_add_item_ret_uint(ptr noundef %2, i32 noundef %88, ptr noundef %0, i32 noundef %.5, i32 noundef 1, i32 noundef 0, ptr noundef nonnull %14)
  %90 = add i32 %.5, 1
  %91 = load i32, ptr @hf_gtpv2_twan_circuit_id, align 4
  %92 = load i32, ptr %14, align 4
  %93 = call ptr @proto_tree_add_item(ptr noundef %2, i32 noundef %91, ptr noundef %0, i32 noundef %90, i32 noundef %92, i32 noundef 0)
  %94 = load i32, ptr %14, align 4
  %95 = add i32 %94, %90
  br label %96

96:                                               ; preds = %87, %60
  %.4 = phi i32 [ %95, %87 ], [ %.3, %60 ]
  %97 = zext i16 %4 to i32
  %98 = icmp slt i32 %.4, %97
  br i1 %98, label %99, label %101

99:                                               ; preds = %96
  %100 = call ptr (ptr, ptr, ptr, ptr, i32, i32, ptr, ...) @proto_tree_add_expert_format(ptr noundef %2, ptr noundef %1, ptr noundef nonnull @ei_gtpv2_ie_data_not_dissected, ptr noundef %0, i32 noundef %.4, i32 noundef -1, ptr noundef nonnull @.str.3)
  br label %101

101:                                              ; preds = %99, %96
  call void @llvm.lifetime.end.p0(i64 4, ptr nonnull %14) #12
  call void @llvm.lifetime.end.p0(i64 4, ptr nonnull %13) #12
  call void @llvm.lifetime.end.p0(i64 4, ptr nonnull %12) #12
  call void @llvm.lifetime.end.p0(i64 4, ptr nonnull %11) #12
  call void @llvm.lifetime.end.p0(i64 4, ptr nonnull %10) #12
  call void @llvm.lifetime.end.p0(i64 4, ptr nonnull %9) #12
  ret void
}